; Function Attrs: mustprogress nofree norecurse nosync nounwind willreturn memory(argmem: read) uwtable
define internal { i64, i8 } @_ZNK4node12_GLOBAL__N_113DataQueueImpl17maybeCapRemainingEv(ptr nocapture noundef nonnull readonly align 8 dereferenceable(152) %this) unnamed_addr #12 align 2 {
entry:
  %capped_size_ = getelementptr inbounds i8, ptr %this, i64 72
  %_M_engaged.i.i = getelementptr inbounds i8, ptr %this, i64 80
  %0 = load i8, ptr %_M_engaged.i.i, align 8
  %1 = and i8 %0, 1
  %tobool.i.i.not = icmp eq i8 %1, 0
  br i1 %tobool.i.i.not, label %return, label %land.lhs.true

land.lhs.true:                                    ; preds = %entry
  %_M_engaged.i.i3 = getelementptr inbounds i8, ptr %this, i64 64
  %2 = load i8, ptr %_M_engaged.i.i3, align 8
  %3 = and i8 %2, 1
  %tobool.i.i4.not = icmp eq i8 %3, 0
  br i1 %tobool.i.i4.not, label %return, label %_ZNKRSt8optionalImE5valueEv.exit9

_ZNKRSt8optionalImE5valueEv.exit9:                ; preds = %land.lhs.true
  %size_ = getelementptr inbounds i8, ptr %this, i64 56
  %4 = load i64, ptr %capped_size_, align 8
  %5 = load i64, ptr %size_, align 8
  %cond = tail call i64 @llvm.usub.sat.i64(i64 %4, i64 %5)
  br label %return

return:                                           ; preds = %entry, %land.lhs.true, %_ZNKRSt8optionalImE5valueEv.exit9
  %retval.sroa.0.0 = phi i64 [ %cond, %_ZNKRSt8optionalImE5valueEv.exit9 ], [ undef, %land.lhs.true ], [ undef, %entry ]
  %retval.sroa.2.0 = phi i8 [ 1, %_ZNKRSt8optionalImE5valueEv.exit9 ], [ 0, %land.lhs.true ], [ 0, %entry ]
  %.fca.0.insert = insertvalue { i64, i8 } poison, i64 %retval.sroa.0.0, 0
  %.fca.1.insert = insertvalue { i64, i8 } %.fca.0.insert, i8 %retval.sroa.2.0, 1
  ret { i64, i8 } %.fca.1.insert
}